target datalayout = "e-m:e-p270:32:32-p271:32:32-p272:64:64-i64:64-i128:128-f80:128-n8:16:32:64-S128"
target triple = "x86_64-pc-linux-gnu"

%struct.strbuf = type { i64, i64, ptr }

@strbuf_slopbuf = external global [0 x i8], align 1
@__const.get_common_dir_noenv.data = private unnamed_addr constant %struct.strbuf { i64 0, i64 0, ptr @strbuf_slopbuf }, align 8
@__const.get_common_dir_noenv.path = private unnamed_addr constant %struct.strbuf { i64 0, i64 0, ptr @strbuf_slopbuf }, align 8
@.str.10 = private unnamed_addr constant [13 x i8] c"%s/commondir\00", align 1
@.str.11 = private unnamed_addr constant [18 x i8] c"failed to read %s\00", align 1
@.str.12 = private unnamed_addr constant [4 x i8] c"%s/\00", align 1
@.str.95 = private unnamed_addr constant [11 x i8] c"./strbuf.h\00", align 1
@.str.96 = private unnamed_addr constant [30 x i8] c"strbuf_setlen() beyond buffer\00", align 1

; Function Attrs: inlinehint nounwind uwtable
define internal i32 @git_has_dos_drive_prefix(ptr noundef %0) #2 {
  %2 = alloca ptr, align 8
  store ptr %0, ptr %2, align 8, !tbaa !4
  ret i32 0
}

; Function Attrs: inlinehint nounwind uwtable
define internal i32 @git_is_dir_sep(i32 noundef %0) #2 {
  %2 = alloca i32, align 4
  store i32 %0, ptr %2, align 4, !tbaa !9
  %3 = load i32, ptr %2, align 4, !tbaa !9
  %4 = icmp eq i32 %3, 47
  %5 = zext i1 %4 to i32
  ret i32 %5
}

; Function Attrs: inlinehint nounwind uwtable
define internal void @strbuf_addstr(ptr noundef %0, ptr noundef %1) #2 {
  %3 = alloca ptr, align 8
  %4 = alloca ptr, align 8
  store ptr %0, ptr %3, align 8, !tbaa !26
  store ptr %1, ptr %4, align 8, !tbaa !4
  %5 = load ptr, ptr %3, align 8, !tbaa !26
  %6 = load ptr, ptr %4, align 8, !tbaa !4
  %7 = load ptr, ptr %4, align 8, !tbaa !4
  %8 = call i64 @strlen(ptr noundef %7) #14
  call void @strbuf_add(ptr noundef %5, ptr noundef %6, i64 noundef %8)
  ret void
}

; Function Attrs: inlinehint nounwind uwtable
define internal i32 @is_absolute_path(ptr noundef %0) #2 {
  %2 = alloca ptr, align 8
  store ptr %0, ptr %2, align 8, !tbaa !4
  %3 = load ptr, ptr %2, align 8, !tbaa !4
  %4 = getelementptr inbounds i8, ptr %3, i64 0
  %5 = load i8, ptr %4, align 1, !tbaa !13
  %6 = sext i8 %5 to i32
  %7 = call i32 @git_is_dir_sep(i32 noundef %6)
  %8 = icmp ne i32 %7, 0
  br i1 %8, label %13, label %9

9:                                                ; preds = %1
  %10 = load ptr, ptr %2, align 8, !tbaa !4
  %11 = call i32 @git_has_dos_drive_prefix(ptr noundef %10)
  %12 = icmp ne i32 %11, 0
  br label %13

13:                                               ; preds = %9, %1
  %14 = phi i1 [ true, %1 ], [ %12, %9 ]
  %15 = zext i1 %14 to i32
  ret i32 %15
}

; Function Attrs: inlinehint nounwind uwtable
define internal void @strbuf_setlen(ptr noundef %0, i64 noundef %1) #2 {
  %3 = alloca ptr, align 8
  %4 = alloca i64, align 8
  store ptr %0, ptr %3, align 8, !tbaa !26
  store i64 %1, ptr %4, align 8, !tbaa !16
  %5 = load i64, ptr %4, align 8, !tbaa !16
  %6 = load ptr, ptr %3, align 8, !tbaa !26
  %7 = getelementptr inbounds nuw %struct.strbuf, ptr %6, i32 0, i32 0
  %8 = load i64, ptr %7, align 8, !tbaa !30
  %9 = icmp ne i64 %8, 0
  br i1 %9, label %10, label %15

10:                                               ; preds = %2
  %11 = load ptr, ptr %3, align 8, !tbaa !26
  %12 = getelementptr inbounds nuw %struct.strbuf, ptr %11, i32 0, i32 0
  %13 = load i64, ptr %12, align 8, !tbaa !30
  %14 = sub i64 %13, 1
  br label %16

15:                                               ; preds = %2
  br label %16

16:                                               ; preds = %15, %10
  %17 = phi i64 [ %14, %10 ], [ 0, %15 ]
  %18 = icmp ugt i64 %5, %17
  br i1 %18, label %19, label %20

19:                                               ; preds = %16
  call void (ptr, i32, ptr, ...) @BUG_fl(ptr noundef @.str.95, i32 noundef 167, ptr noundef @.str.96) #15
  unreachable

20:                                               ; preds = %16
  %21 = load i64, ptr %4, align 8, !tbaa !16
  %22 = load ptr, ptr %3, align 8, !tbaa !26
  %23 = getelementptr inbounds nuw %struct.strbuf, ptr %22, i32 0, i32 1
  store i64 %21, ptr %23, align 8, !tbaa !28
  %24 = load ptr, ptr %3, align 8, !tbaa !26
  %25 = getelementptr inbounds nuw %struct.strbuf, ptr %24, i32 0, i32 2
  %26 = load ptr, ptr %25, align 8, !tbaa !18
  %27 = icmp ne ptr %26, @strbuf_slopbuf
  br i1 %27, label %28, label %34

28:                                               ; preds = %20
  %29 = load ptr, ptr %3, align 8, !tbaa !26
  %30 = getelementptr inbounds nuw %struct.strbuf, ptr %29, i32 0, i32 2
  %31 = load ptr, ptr %30, align 8, !tbaa !18
  %32 = load i64, ptr %4, align 8, !tbaa !16
  %33 = getelementptr inbounds nuw i8, ptr %31, i64 %32
  store i8 0, ptr %33, align 1, !tbaa !13
  br label %35

34:                                               ; preds = %20
  br label %35

35:                                               ; preds = %34, %28
  ret void
}

; Function Attrs: nounwind uwtable
define dso_local i32 @get_common_dir_noenv(ptr noundef %0, ptr noundef %1) #0 {
  %3 = alloca ptr, align 8
  %4 = alloca ptr, align 8
  %5 = alloca %struct.strbuf, align 8
  %6 = alloca %struct.strbuf, align 8
  %7 = alloca i32, align 4
  store ptr %0, ptr %3, align 8, !tbaa !26
  store ptr %1, ptr %4, align 8, !tbaa !4
  call void @llvm.lifetime.start.p0(i64 24, ptr %5) #13
  call void @llvm.memcpy.p0.p0.i64(ptr align 8 %5, ptr align 8 @__const.get_common_dir_noenv.data, i64 24, i1 false)
  call void @llvm.lifetime.start.p0(i64 24, ptr %6) #13
  call void @llvm.memcpy.p0.p0.i64(ptr align 8 %6, ptr align 8 @__const.get_common_dir_noenv.path, i64 24, i1 false)
  call void @llvm.lifetime.start.p0(i64 4, ptr %7) #13
  store i32 0, ptr %7, align 4, !tbaa !9
  %8 = load ptr, ptr %4, align 8, !tbaa !4
  call void (ptr, ptr, ...) @strbuf_addf(ptr noundef %6, ptr noundef @.str.10, ptr noundef %8)
  %9 = getelementptr inbounds nuw %struct.strbuf, ptr %6, i32 0, i32 2
  %10 = load ptr, ptr %9, align 8, !tbaa !18
  %11 = call i32 @file_exists(ptr noundef %10)
  %12 = icmp ne i32 %11, 0
  br i1 %12, label %13, label %71

13:                                               ; preds = %2
  %14 = getelementptr inbounds nuw %struct.strbuf, ptr %6, i32 0, i32 2
  %15 = load ptr, ptr %14, align 8, !tbaa !18
  %16 = call i64 @strbuf_read_file(ptr noundef %5, ptr noundef %15, i64 noundef 0)
  %17 = icmp sle i64 %16, 0
  br i1 %17, label %18, label %22

18:                                               ; preds = %13
  %19 = call ptr @_(ptr noundef @.str.11)
  %20 = getelementptr inbounds nuw %struct.strbuf, ptr %6, i32 0, i32 2
  %21 = load ptr, ptr %20, align 8, !tbaa !18
  call void (ptr, ...) @die_errno(ptr noundef %19, ptr noundef %21) #15
  unreachable

22:                                               ; preds = %13
  br label %23

23:                                               ; preds = %51, %22
  %24 = getelementptr inbounds nuw %struct.strbuf, ptr %5, i32 0, i32 1
  %25 = load i64, ptr %24, align 8, !tbaa !28
  %26 = icmp ne i64 %25, 0
  br i1 %26, label %27, label %49

27:                                               ; preds = %23
  %28 = getelementptr inbounds nuw %struct.strbuf, ptr %5, i32 0, i32 2
  %29 = load ptr, ptr %28, align 8, !tbaa !18
  %30 = getelementptr inbounds nuw %struct.strbuf, ptr %5, i32 0, i32 1
  %31 = load i64, ptr %30, align 8, !tbaa !28
  %32 = sub i64 %31, 1
  %33 = getelementptr inbounds nuw i8, ptr %29, i64 %32
  %34 = load i8, ptr %33, align 1, !tbaa !13
  %35 = sext i8 %34 to i32
  %36 = icmp eq i32 %35, 10
  br i1 %36, label %47, label %37

37:                                               ; preds = %27
  %38 = getelementptr inbounds nuw %struct.strbuf, ptr %5, i32 0, i32 2
  %39 = load ptr, ptr %38, align 8, !tbaa !18
  %40 = getelementptr inbounds nuw %struct.strbuf, ptr %5, i32 0, i32 1
  %41 = load i64, ptr %40, align 8, !tbaa !28
  %42 = sub i64 %41, 1
  %43 = getelementptr inbounds nuw i8, ptr %39, i64 %42
  %44 = load i8, ptr %43, align 1, !tbaa !13
  %45 = sext i8 %44 to i32
  %46 = icmp eq i32 %45, 13
  br label %47

47:                                               ; preds = %37, %27
  %48 = phi i1 [ true, %27 ], [ %46, %37 ]
  br label %49

49:                                               ; preds = %47, %23
  %50 = phi i1 [ false, %23 ], [ %48, %47 ]
  br i1 %50, label %51, label %55

51:                                               ; preds = %49
  %52 = getelementptr inbounds nuw %struct.strbuf, ptr %5, i32 0, i32 1
  %53 = load i64, ptr %52, align 8, !tbaa !28
  %54 = add i64 %53, -1
  store i64 %54, ptr %52, align 8, !tbaa !28
  br label %23, !llvm.loop !29

55:                                               ; preds = %49
  %56 = getelementptr inbounds nuw %struct.strbuf, ptr %5, i32 0, i32 2
  %57 = load ptr, ptr %56, align 8, !tbaa !18
  %58 = getelementptr inbounds nuw %struct.strbuf, ptr %5, i32 0, i32 1
  %59 = load i64, ptr %58, align 8, !tbaa !28
  %60 = getelementptr inbounds nuw i8, ptr %57, i64 %59
  store i8 0, ptr %60, align 1, !tbaa !13
  call void @strbuf_setlen(ptr noundef %6, i64 noundef 0)
  %61 = getelementptr inbounds nuw %struct.strbuf, ptr %5, i32 0, i32 2
  %62 = load ptr, ptr %61, align 8, !tbaa !18
  %63 = call i32 @is_absolute_path(ptr noundef %62)
  %64 = icmp ne i32 %63, 0
  br i1 %64, label %67, label %65

65:                                               ; preds = %55
  %66 = load ptr, ptr %4, align 8, !tbaa !4
  call void (ptr, ptr, ...) @strbuf_addf(ptr noundef %6, ptr noundef @.str.12, ptr noundef %66)
  br label %67

67:                                               ; preds = %65, %55
  call void @strbuf_addbuf(ptr noundef %6, ptr noundef %5)
  %68 = load ptr, ptr %3, align 8, !tbaa !26
  %69 = getelementptr inbounds nuw %struct.strbuf, ptr %6, i32 0, i32 2
  %70 = load ptr, ptr %69, align 8, !tbaa !18
  call void @strbuf_add_real_path(ptr noundef %68, ptr noundef %70)
  store i32 1, ptr %7, align 4, !tbaa !9
  br label %74

71:                                               ; preds = %2
  %72 = load ptr, ptr %3, align 8, !tbaa !26
  %73 = load ptr, ptr %4, align 8, !tbaa !4
  call void @strbuf_addstr(ptr noundef %72, ptr noundef %73)
  br label %74

74:                                               ; preds = %71, %67
  call void @strbuf_release(ptr noundef %5)
  call void @strbuf_release(ptr noundef %6)
  %75 = load i32, ptr %7, align 4, !tbaa !9
  call void @llvm.lifetime.end.p0(i64 4, ptr %7) #13
  call void @llvm.lifetime.end.p0(i64 24, ptr %6) #13
  call void @llvm.lifetime.end.p0(i64 24, ptr %5) #13
  ret i32 %75
}