; Function Attrs: nounwind uwtable
define dso_local range(i32 0, 2) i32 @get_common_dir_noenv(ptr noundef %0, ptr noundef %1) local_unnamed_addr #0 {
  %3 = alloca %struct.strbuf, align 8
  %4 = alloca %struct.strbuf, align 8
  call void @llvm.lifetime.start.p0(i64 24, ptr nonnull %3) #25
  call void @llvm.memcpy.p0.p0.i64(ptr noundef nonnull align 8 dereferenceable(24) %3, ptr noundef nonnull align 8 dereferenceable(24) @__const.create_object_directory.path, i64 24, i1 false)
  call void @llvm.lifetime.start.p0(i64 24, ptr nonnull %4) #25
  call void @llvm.memcpy.p0.p0.i64(ptr noundef nonnull align 8 dereferenceable(24) %4, ptr noundef nonnull align 8 dereferenceable(24) @__const.create_object_directory.path, i64 24, i1 false)
  call void (ptr, ptr, ...) @strbuf_addf(ptr noundef nonnull %4, ptr noundef nonnull @.str.10, ptr noundef %1) #25
  %5 = getelementptr inbounds nuw i8, ptr %4, i64 16
  %6 = load ptr, ptr %5, align 8, !tbaa !14
  %7 = call i32 @file_exists(ptr noundef %6) #25
  %.not = icmp eq i32 %7, 0
  br i1 %.not, label %29, label %8

8:                                                ; preds = %2
  %9 = load ptr, ptr %5, align 8, !tbaa !14
  %10 = call i64 @strbuf_read_file(ptr noundef nonnull %3, ptr noundef %9, i64 noundef 0) #25
  %11 = icmp slt i64 %10, 1
  br i1 %11, label %13, label %.preheader

.preheader:                                       ; preds = %8
  %12 = getelementptr inbounds nuw i8, ptr %3, i64 8
  %.promoted = load i64, ptr %12, align 8, !tbaa !20
  %.not912 = icmp eq i64 %.promoted, 0
  %.phi.trans.insert = getelementptr inbounds nuw i8, ptr %3, i64 16
  %.pre = load ptr, ptr %.phi.trans.insert, align 8, !tbaa !14
  br i1 %.not912, label %.critedge, label %.lr.ph

.lr.ph:                                           ; preds = %.preheader
  %invariant.gep = getelementptr i8, ptr %.pre, i64 -1
  br label %16

13:                                               ; preds = %8
  %14 = call fastcc ptr @_(ptr noundef nonnull @.str.11)
  %15 = load ptr, ptr %5, align 8, !tbaa !14
  call void (ptr, ...) @die_errno(ptr noundef %14, ptr noundef %15) #26
  unreachable

16:                                               ; preds = %.lr.ph, %.critedge2
  %17 = phi i64 [ %.promoted, %.lr.ph ], [ %19, %.critedge2 ]
  %gep = getelementptr i8, ptr %invariant.gep, i64 %17
  %18 = load i8, ptr %gep, align 1, !tbaa !4
  switch i8 %18, label %.critedge [
    i8 10, label %.critedge2
    i8 13, label %.critedge2
  ]

.critedge2:                                       ; preds = %16, %16
  %19 = add i64 %17, -1
  store i64 %19, ptr %12, align 8, !tbaa !20
  %.not9 = icmp eq i64 %19, 0
  br i1 %.not9, label %.critedge, label %16, !llvm.loop !21

.critedge:                                        ; preds = %.critedge2, %16, %.preheader
  %.lcssa = phi i64 [ 0, %.preheader ], [ %17, %16 ], [ 0, %.critedge2 ]
  %20 = getelementptr inbounds nuw i8, ptr %3, i64 16
  %21 = getelementptr inbounds nuw i8, ptr %.pre, i64 %.lcssa
  store i8 0, ptr %21, align 1, !tbaa !4
  %22 = getelementptr inbounds nuw i8, ptr %4, i64 8
  store i64 0, ptr %22, align 8, !tbaa !20
  %23 = load ptr, ptr %5, align 8, !tbaa !14
  %.not9.i = icmp eq ptr %23, @strbuf_slopbuf
  br i1 %.not9.i, label %strbuf_setlen.exit, label %24

24:                                               ; preds = %.critedge
  store i8 0, ptr %23, align 1, !tbaa !4
  br label %strbuf_setlen.exit

strbuf_setlen.exit:                               ; preds = %.critedge, %24
  %25 = load ptr, ptr %20, align 8, !tbaa !14
  %.val = load i8, ptr %25, align 1, !tbaa !4
  %.not11 = icmp eq i8 %.val, 47
  br i1 %.not11, label %27, label %26

26:                                               ; preds = %strbuf_setlen.exit
  call void (ptr, ptr, ...) @strbuf_addf(ptr noundef nonnull %4, ptr noundef nonnull @.str.12, ptr noundef %1) #25
  br label %27

27:                                               ; preds = %26, %strbuf_setlen.exit
  call void @strbuf_addbuf(ptr noundef nonnull %4, ptr noundef nonnull %3) #25
  %28 = load ptr, ptr %5, align 8, !tbaa !14
  call void @strbuf_add_real_path(ptr noundef %0, ptr noundef %28) #25
  br label %31

29:                                               ; preds = %2
  %30 = call i64 @strlen(ptr noundef nonnull dereferenceable(1) %1) #24
  call void @strbuf_add(ptr noundef %0, ptr noundef nonnull %1, i64 noundef %30) #25
  br label %31

31:                                               ; preds = %29, %27
  %.0 = phi i32 [ 1, %27 ], [ 0, %29 ]
  call void @strbuf_release(ptr noundef nonnull %3) #25
  call void @strbuf_release(ptr noundef nonnull %4) #25
  call void @llvm.lifetime.end.p0(i64 24, ptr nonnull %4) #25
  call void @llvm.lifetime.end.p0(i64 24, ptr nonnull %3) #25
  ret i32 %.0
}